target datalayout = "e-m:e-p270:32:32-p271:32:32-p272:64:64-i64:64-i128:128-f80:128-n8:16:32:64-S128"
target triple = "x86_64-pc-linux-gnu"

%class.PacketListModel = type <{ %class.QAbstractItemModel, ptr, %class.QList, %class.QList.0, %class.QList.0, %class.QList.0, %class.QList.4, ptr, i32, [4 x i8] }>
%class.QAbstractItemModel = type { %class.QObject }
%class.QObject = type { ptr, %class.QScopedPointer }
%class.QScopedPointer = type { ptr }
%class.QList = type { %struct.QArrayDataPointer }
%struct.QArrayDataPointer = type { ptr, ptr, i64 }
%class.QList.0 = type { %struct.QArrayDataPointer.3 }
%struct.QArrayDataPointer.3 = type { ptr, ptr, i64 }
%class.QList.4 = type { %struct.QArrayDataPointer.7 }
%struct.QArrayDataPointer.7 = type { ptr, ptr, i64 }
%struct._frame_data = type <{ i32, i32, i32, i32, i32, [4 x i8], i64, ptr, ptr, ptr, i8, i16, [5 x i8], %struct.nstime_t, %struct.nstime_t, i32, i32 }>
%struct.nstime_t = type { i64, i32 }

; Function Attrs: mustprogress nounwind null_pointer_is_valid sspstrong uwtable
define linkonce_odr noundef ptr @_ZNK17QArrayDataPointerIiE4dataEv(ptr noundef align 8 dereferenceable_or_null(24) %0) #2 comdat align 2 {
  %2 = alloca ptr, align 8
  store ptr %0, ptr %2, align 8
  %3 = load ptr, ptr %2, align 8
  %4 = getelementptr inbounds nuw %struct.QArrayDataPointer.7, ptr %3, i32 0, i32 1
  %5 = load ptr, ptr %4, align 8
  ret ptr %5
}

; Function Attrs: mustprogress nounwind null_pointer_is_valid sspstrong uwtable
define linkonce_odr noundef ptr @_ZNK5QListIiE4dataEv(ptr noundef align 8 dereferenceable_or_null(24) %0) #2 comdat align 2 {
  %2 = alloca ptr, align 8
  store ptr %0, ptr %2, align 8
  %3 = load ptr, ptr %2, align 8
  %4 = getelementptr inbounds nuw %class.QList.4, ptr %3, i32 0, i32 0
  %5 = call noundef ptr @_ZNK17QArrayDataPointerIiEptEv(ptr noundef align 8 dereferenceable_or_null(24) %4) #24
  %6 = call noundef ptr @_ZNK17QArrayDataPointerIiE4dataEv(ptr noundef align 8 dereferenceable_or_null(24) %5) #24
  ret ptr %6
}

; Function Attrs: mustprogress nounwind null_pointer_is_valid sspstrong uwtable
define linkonce_odr noundef align 4 dereferenceable(4) ptr @_ZNK5QListIiE2atEx(ptr noundef align 8 dereferenceable_or_null(24) %0, i64 noundef %1) #2 comdat align 2 {
  %3 = alloca ptr, align 8
  %4 = alloca i64, align 8
  store ptr %0, ptr %3, align 8
  store i64 %1, ptr %4, align 8
  %5 = load ptr, ptr %3, align 8
  %6 = call noundef ptr @_ZNK5QListIiE4dataEv(ptr noundef align 8 dereferenceable_or_null(24) %5) #24
  %7 = load i64, ptr %4, align 8
  %8 = getelementptr i32, ptr %6, i64 %7
  ret ptr %8
}

; Function Attrs: mustprogress nounwind null_pointer_is_valid sspstrong uwtable
define linkonce_odr noundef ptr @_ZNK17QArrayDataPointerIiEptEv(ptr noundef align 8 dereferenceable_or_null(24) %0) #2 comdat align 2 {
  %2 = alloca ptr, align 8
  store ptr %0, ptr %2, align 8
  %3 = load ptr, ptr %2, align 8
  ret ptr %3
}

; Function Attrs: inlinehint mustprogress nounwind null_pointer_is_valid sspstrong uwtable
define linkonce_odr noundef i32 @_ZNK5QListIiE5valueExi(ptr noundef align 8 dereferenceable_or_null(24) %0, i64 noundef %1, i32 noundef %2) #6 comdat align 2 {
  %4 = alloca ptr, align 8
  %5 = alloca i64, align 8
  %6 = alloca i32, align 4
  store ptr %0, ptr %4, align 8
  store i64 %1, ptr %5, align 8
  store i32 %2, ptr %6, align 4
  %7 = load ptr, ptr %4, align 8
  %8 = load i64, ptr %5, align 8
  %9 = getelementptr inbounds nuw %class.QList.4, ptr %7, i32 0, i32 0
  %10 = call noundef ptr @_ZNK17QArrayDataPointerIiEptEv(ptr noundef align 8 dereferenceable_or_null(24) %9) #24
  %11 = getelementptr inbounds nuw %struct.QArrayDataPointer.7, ptr %10, i32 0, i32 2
  %12 = load i64, ptr %11, align 8
  %13 = icmp ult i64 %8, %12
  br i1 %13, label %14, label %18

14:                                               ; preds = %3
  %15 = load i64, ptr %5, align 8
  %16 = call noundef align 4 dereferenceable(4) ptr @_ZNK5QListIiE2atEx(ptr noundef align 8 dereferenceable_or_null(24) %7, i64 noundef %15) #24
  %17 = load i32, ptr %16, align 4
  br label %20

18:                                               ; preds = %3
  %19 = load i32, ptr %6, align 4
  br label %20

20:                                               ; preds = %18, %14
  %21 = phi i32 [ %17, %14 ], [ %19, %18 ]
  ret i32 %21
}

; Function Attrs: mustprogress null_pointer_is_valid sspstrong uwtable
define linkonce_odr noundef i32 @_ZNK5QListIiE5valueEx(ptr noundef align 8 dereferenceable_or_null(24) %0, i64 noundef %1) #0 comdat align 2 {
  %3 = alloca ptr, align 8
  %4 = alloca i64, align 8
  store ptr %0, ptr %3, align 8
  store i64 %1, ptr %4, align 8
  %5 = load ptr, ptr %3, align 8
  %6 = load i64, ptr %4, align 8
  %7 = call noundef i32 @_ZNK5QListIiE5valueExi(ptr noundef align 8 dereferenceable_or_null(24) %5, i64 noundef %6, i32 noundef 0)
  ret i32 %7
}

; Function Attrs: mustprogress null_pointer_is_valid sspstrong uwtable
define noundef i32 @_ZNK15PacketListModel17packetNumberToRowEi(ptr noundef align 8 dereferenceable_or_null(156) %0, i32 noundef %1) #0 align 2 {
  %3 = alloca ptr, align 8
  %4 = alloca i32, align 4
  store ptr %0, ptr %3, align 8
  store i32 %1, ptr %4, align 4
  %5 = load ptr, ptr %3, align 8
  %6 = getelementptr inbounds nuw %class.PacketListModel, ptr %5, i32 0, i32 6
  %7 = load i32, ptr %4, align 4
  %8 = sext i32 %7 to i64
  %9 = call noundef i32 @_ZNK5QListIiE5valueEx(ptr noundef align 8 dereferenceable_or_null(24) %6, i64 noundef %8)
  %10 = sub i32 %9, 1
  ret i32 %10
}

; Function Attrs: mustprogress null_pointer_is_valid sspstrong uwtable
define noundef i32 @_ZNK15PacketListModel14visibleIndexOfEP11_frame_data(ptr noundef align 8 dereferenceable_or_null(156) %0, ptr noundef %1) #0 align 2 {
  %3 = alloca i32, align 4
  %4 = alloca ptr, align 8
  %5 = alloca ptr, align 8
  store ptr %0, ptr %4, align 8
  store ptr %1, ptr %5, align 8
  %6 = load ptr, ptr %4, align 8
  %7 = load ptr, ptr %5, align 8
  %8 = icmp eq ptr %7, null
  br i1 %8, label %9, label %10

9:                                                ; preds = %2
  store i32 -1, ptr %3, align 4
  br label %15

10:                                               ; preds = %2
  %11 = load ptr, ptr %5, align 8
  %12 = getelementptr inbounds nuw %struct._frame_data, ptr %11, i32 0, i32 0
  %13 = load i32, ptr %12, align 8
  %14 = call noundef i32 @_ZNK15PacketListModel17packetNumberToRowEi(ptr noundef align 8 dereferenceable_or_null(156) %6, i32 noundef %13)
  store i32 %14, ptr %3, align 4
  br label %15

15:                                               ; preds = %10, %9
  %16 = load i32, ptr %3, align 4
  ret i32 %16
}