; Function Attrs: mustprogress nofree norecurse nosync nounwind null_pointer_is_valid sspstrong willreturn memory(read, inaccessiblemem: none) uwtable
define noundef i32 @_ZNK15PacketListModel14visibleIndexOfEP11_frame_data(ptr noundef readonly align 8 captures(none) dereferenceable_or_null(156) %0, ptr noundef readonly captures(address_is_null) %1) local_unnamed_addr #11 align 2 {
  %3 = icmp eq ptr %1, null
  br i1 %3, label %_ZNK15PacketListModel17packetNumberToRowEi.exit, label %4

4:                                                ; preds = %2
  %5 = load i32, ptr %1, align 8
  %6 = sext i32 %5 to i64
  %7 = getelementptr inbounds nuw i8, ptr %0, i64 136
  %8 = load i64, ptr %7, align 8
  %9 = icmp ugt i64 %8, %6
  br i1 %9, label %10, label %_ZNK15PacketListModel17packetNumberToRowEi.exit

10:                                               ; preds = %4
  %11 = getelementptr inbounds nuw i8, ptr %0, i64 128
  %12 = load ptr, ptr %11, align 8
  %13 = getelementptr i32, ptr %12, i64 %6
  %14 = load i32, ptr %13, align 4
  %15 = add i32 %14, -1
  br label %_ZNK15PacketListModel17packetNumberToRowEi.exit

_ZNK15PacketListModel17packetNumberToRowEi.exit:  ; preds = %10, %4, %2
  %.0 = phi i32 [ -1, %2 ], [ %15, %10 ], [ -1, %4 ]
  ret i32 %.0
}